target datalayout = "e-m:e-p270:32:32-p271:32:32-p272:64:64-i64:64-i128:128-f80:128-n8:16:32:64-S128"
target triple = "x86_64-pc-linux-gnu"

@.str = private unnamed_addr constant [61 x i8] c"Couldn't make JIT page (%p, %lu bytes) executable, errno: %s\00", align 1

; Function Attrs: nounwind sspstrong uwtable
define hidden void @rb_yjit_mark_executable(ptr noundef %0, i32 noundef %1) #0 {
  %3 = alloca ptr, align 8
  %4 = alloca i32, align 4
  store ptr %0, ptr %3, align 8, !tbaa !7
  store i32 %1, ptr %4, align 4, !tbaa !11
  %5 = load i32, ptr %4, align 4, !tbaa !11
  %6 = icmp eq i32 %5, 0
  br i1 %6, label %7, label %8

7:                                                ; preds = %2
  br label %21

8:                                                ; preds = %2
  %9 = load ptr, ptr %3, align 8, !tbaa !7
  %10 = load i32, ptr %4, align 4, !tbaa !11
  %11 = zext i32 %10 to i64
  %12 = call i32 @mprotect(ptr noundef %9, i64 noundef %11, i32 noundef 5) #5
  %13 = icmp ne i32 %12, 0
  br i1 %13, label %14, label %21

14:                                               ; preds = %8
  %15 = load ptr, ptr %3, align 8, !tbaa !7
  %16 = load i32, ptr %4, align 4, !tbaa !11
  %17 = zext i32 %16 to i64
  %18 = call ptr @rb_errno_ptr()
  %19 = load i32, ptr %18, align 4, !tbaa !11
  %20 = call ptr @strerror(i32 noundef %19) #5
  call void (ptr, ...) @rb_bug(ptr noundef @.str, ptr noundef %15, i64 noundef %17, ptr noundef %20) #24
  unreachable

21:                                               ; preds = %7, %8
  ret void
}