; Function Attrs: nounwind sspstrong uwtable
define hidden void @rb_yjit_mark_executable(ptr noundef %0, i32 noundef %1) local_unnamed_addr #0 {
  %3 = icmp eq i32 %1, 0
  br i1 %3, label %11, label %4

4:                                                ; preds = %2
  %5 = zext i32 %1 to i64
  %6 = tail call i32 @mprotect(ptr noundef %0, i64 noundef %5, i32 noundef 5) #5
  %.not = icmp eq i32 %6, 0
  br i1 %.not, label %11, label %7

7:                                                ; preds = %4
  %8 = tail call ptr @rb_errno_ptr() #5
  %9 = load i32, ptr %8, align 4, !tbaa !7
  %10 = tail call ptr @strerror(i32 noundef %9) #5
  tail call void (ptr, ...) @rb_bug(ptr noundef nonnull @.str, ptr noundef %0, i64 noundef %5, ptr noundef %10) #24
  unreachable

11:                                               ; preds = %2, %4
  ret void
}